; Function Attrs: nounwind sspstrong uwtable
define dso_local noundef zeroext i1 @visit_type_ChardevCommon_members(ptr noundef %v, ptr noundef %obj, ptr noundef %errp) local_unnamed_addr #0 {
entry:
  %has_logfile = alloca i8, align 1
  %0 = load ptr, ptr %obj, align 8
  %tobool = icmp ne ptr %0, null
  %frombool = zext i1 %tobool to i8
  store i8 %frombool, ptr %has_logfile, align 1
  %call = call zeroext i1 @visit_optional(ptr noundef %v, ptr noundef nonnull @.str.10, ptr noundef nonnull %has_logfile) #5
  br i1 %call, label %if.then, label %if.end5

if.then:                                          ; preds = %entry
  %call3 = call zeroext i1 @visit_type_str(ptr noundef %v, ptr noundef nonnull @.str.10, ptr noundef nonnull %obj, ptr noundef %errp) #5
  br i1 %call3, label %if.end5, label %return

if.end5:                                          ; preds = %if.then, %entry
  %has_logappend = getelementptr inbounds nuw i8, ptr %obj, i64 8
  %call6 = call zeroext i1 @visit_optional(ptr noundef %v, ptr noundef nonnull @.str.11, ptr noundef nonnull %has_logappend) #5
  br i1 %call6, label %if.then7, label %if.end11

if.then7:                                         ; preds = %if.end5
  %logappend = getelementptr inbounds nuw i8, ptr %obj, i64 9
  %call8 = call zeroext i1 @visit_type_bool(ptr noundef %v, ptr noundef nonnull @.str.11, ptr noundef nonnull %logappend, ptr noundef %errp) #5
  br i1 %call8, label %if.end11, label %return

if.end11:                                         ; preds = %if.then7, %if.end5
  br label %return

return:                                           ; preds = %if.then7, %if.then, %if.end11
  %retval.0 = phi i1 [ true, %if.end11 ], [ false, %if.then ], [ false, %if.then7 ]
  ret i1 %retval.0
}